
./victim:     file format elf64-x86-64


Disassembly of section .init:

0000000000001000 <_init>:
    1000:	f3 0f 1e fa          	endbr64 
    1004:	48 83 ec 08          	sub    $0x8,%rsp
    1008:	48 8b 05 d9 2f 00 00 	mov    0x2fd9(%rip),%rax        # 3fe8 <__gmon_start__>
    100f:	48 85 c0             	test   %rax,%rax
    1012:	74 02                	je     1016 <_init+0x16>
    1014:	ff d0                	callq  *%rax
    1016:	48 83 c4 08          	add    $0x8,%rsp
    101a:	c3                   	retq   

Disassembly of section .plt:

0000000000001020 <.plt>:
    1020:	ff 35 8a 2f 00 00    	pushq  0x2f8a(%rip)        # 3fb0 <_GLOBAL_OFFSET_TABLE_+0x8>
    1026:	f2 ff 25 8b 2f 00 00 	bnd jmpq *0x2f8b(%rip)        # 3fb8 <_GLOBAL_OFFSET_TABLE_+0x10>
    102d:	0f 1f 00             	nopl   (%rax)
    1030:	f3 0f 1e fa          	endbr64 
    1034:	68 00 00 00 00       	pushq  $0x0
    1039:	f2 e9 e1 ff ff ff    	bnd jmpq 1020 <.plt>
    103f:	90                   	nop
    1040:	f3 0f 1e fa          	endbr64 
    1044:	68 01 00 00 00       	pushq  $0x1
    1049:	f2 e9 d1 ff ff ff    	bnd jmpq 1020 <.plt>
    104f:	90                   	nop
    1050:	f3 0f 1e fa          	endbr64 
    1054:	68 02 00 00 00       	pushq  $0x2
    1059:	f2 e9 c1 ff ff ff    	bnd jmpq 1020 <.plt>
    105f:	90                   	nop

Disassembly of section .plt.got:

0000000000001060 <__cxa_finalize@plt>:
    1060:	f3 0f 1e fa          	endbr64 
    1064:	f2 ff 25 8d 2f 00 00 	bnd jmpq *0x2f8d(%rip)        # 3ff8 <__cxa_finalize@GLIBC_2.2.5>
    106b:	0f 1f 44 00 00       	nopl   0x0(%rax,%rax,1)

Disassembly of section .plt.sec:

0000000000001070 <puts@plt>:
    1070:	f3 0f 1e fa          	endbr64 
    1074:	f2 ff 25 45 2f 00 00 	bnd jmpq *0x2f45(%rip)        # 3fc0 <puts@GLIBC_2.2.5>
    107b:	0f 1f 44 00 00       	nopl   0x0(%rax,%rax,1)

0000000000001080 <printf@plt>:
    1080:	f3 0f 1e fa          	endbr64 
    1084:	f2 ff 25 3d 2f 00 00 	bnd jmpq *0x2f3d(%rip)        # 3fc8 <printf@GLIBC_2.2.5>
    108b:	0f 1f 44 00 00       	nopl   0x0(%rax,%rax,1)

0000000000001090 <strtol@plt>:
    1090:	f3 0f 1e fa          	endbr64 
    1094:	f2 ff 25 35 2f 00 00 	bnd jmpq *0x2f35(%rip)        # 3fd0 <strtol@GLIBC_2.2.5>
    109b:	0f 1f 44 00 00       	nopl   0x0(%rax,%rax,1)

Disassembly of section .text:

00000000000010a0 <_start>:
    10a0:	f3 0f 1e fa          	endbr64 
    10a4:	31 ed                	xor    %ebp,%ebp
    10a6:	49 89 d1             	mov    %rdx,%r9
    10a9:	5e                   	pop    %rsi
    10aa:	48 89 e2             	mov    %rsp,%rdx
    10ad:	48 83 e4 f0          	and    $0xfffffffffffffff0,%rsp
    10b1:	50                   	push   %rax
    10b2:	54                   	push   %rsp
    10b3:	4c 8d 05 36 03 00 00 	lea    0x336(%rip),%r8        # 13f0 <__libc_csu_fini>
    10ba:	48 8d 0d bf 02 00 00 	lea    0x2bf(%rip),%rcx        # 1380 <__libc_csu_init>
    10c1:	48 8d 3d 88 01 00 00 	lea    0x188(%rip),%rdi        # 1250 <main>
    10c8:	ff 15 12 2f 00 00    	callq  *0x2f12(%rip)        # 3fe0 <__libc_start_main@GLIBC_2.2.5>
    10ce:	f4                   	hlt    
    10cf:	90                   	nop

00000000000010d0 <deregister_tm_clones>:
    10d0:	48 8d 3d 39 2f 00 00 	lea    0x2f39(%rip),%rdi        # 4010 <__TMC_END__>
    10d7:	48 8d 05 32 2f 00 00 	lea    0x2f32(%rip),%rax        # 4010 <__TMC_END__>
    10de:	48 39 f8             	cmp    %rdi,%rax
    10e1:	74 15                	je     10f8 <deregister_tm_clones+0x28>
    10e3:	48 8b 05 ee 2e 00 00 	mov    0x2eee(%rip),%rax        # 3fd8 <_ITM_deregisterTMCloneTable>
    10ea:	48 85 c0             	test   %rax,%rax
    10ed:	74 09                	je     10f8 <deregister_tm_clones+0x28>
    10ef:	ff e0                	jmpq   *%rax
    10f1:	0f 1f 80 00 00 00 00 	nopl   0x0(%rax)
    10f8:	c3                   	retq   
    10f9:	0f 1f 80 00 00 00 00 	nopl   0x0(%rax)

0000000000001100 <register_tm_clones>:
    1100:	48 8d 3d 09 2f 00 00 	lea    0x2f09(%rip),%rdi        # 4010 <__TMC_END__>
    1107:	48 8d 35 02 2f 00 00 	lea    0x2f02(%rip),%rsi        # 4010 <__TMC_END__>
    110e:	48 29 fe             	sub    %rdi,%rsi
    1111:	48 89 f0             	mov    %rsi,%rax
    1114:	48 c1 ee 3f          	shr    $0x3f,%rsi
    1118:	48 c1 f8 03          	sar    $0x3,%rax
    111c:	48 01 c6             	add    %rax,%rsi
    111f:	48 d1 fe             	sar    %rsi
    1122:	74 14                	je     1138 <register_tm_clones+0x38>
    1124:	48 8b 05 c5 2e 00 00 	mov    0x2ec5(%rip),%rax        # 3ff0 <_ITM_registerTMCloneTable>
    112b:	48 85 c0             	test   %rax,%rax
    112e:	74 08                	je     1138 <register_tm_clones+0x38>
    1130:	ff e0                	jmpq   *%rax
    1132:	66 0f 1f 44 00 00    	nopw   0x0(%rax,%rax,1)
    1138:	c3                   	retq   
    1139:	0f 1f 80 00 00 00 00 	nopl   0x0(%rax)

0000000000001140 <__do_global_dtors_aux>:
    1140:	f3 0f 1e fa          	endbr64 
    1144:	80 3d c5 2e 00 00 00 	cmpb   $0x0,0x2ec5(%rip)        # 4010 <__TMC_END__>
    114b:	75 2b                	jne    1178 <__do_global_dtors_aux+0x38>
    114d:	55                   	push   %rbp
    114e:	48 83 3d a2 2e 00 00 	cmpq   $0x0,0x2ea2(%rip)        # 3ff8 <__cxa_finalize@GLIBC_2.2.5>
    1155:	00 
    1156:	48 89 e5             	mov    %rsp,%rbp
    1159:	74 0c                	je     1167 <__do_global_dtors_aux+0x27>
    115b:	48 8b 3d a6 2e 00 00 	mov    0x2ea6(%rip),%rdi        # 4008 <__dso_handle>
    1162:	e8 f9 fe ff ff       	callq  1060 <__cxa_finalize@plt>
    1167:	e8 64 ff ff ff       	callq  10d0 <deregister_tm_clones>
    116c:	c6 05 9d 2e 00 00 01 	movb   $0x1,0x2e9d(%rip)        # 4010 <__TMC_END__>
    1173:	5d                   	pop    %rbp
    1174:	c3                   	retq   
    1175:	0f 1f 00             	nopl   (%rax)
    1178:	c3                   	retq   
    1179:	0f 1f 80 00 00 00 00 	nopl   0x0(%rax)

0000000000001180 <frame_dummy>:
    1180:	f3 0f 1e fa          	endbr64 
    1184:	e9 77 ff ff ff       	jmpq   1100 <register_tm_clones>

0000000000001189 <gcd_simple>:
    1189:	f3 0f 1e fa          	endbr64 
    118d:	55                   	push   %rbp
    118e:	48 89 e5             	mov    %rsp,%rbp
    1191:	48 83 ec 20          	sub    $0x20,%rsp
    1195:	89 7d ec             	mov    %edi,-0x14(%rbp)
    1198:	89 75 e8             	mov    %esi,-0x18(%rbp)
    119b:	83 7d ec 00          	cmpl   $0x0,-0x14(%rbp)
    119f:	7e 06                	jle    11a7 <gcd_simple+0x1e>
    11a1:	83 7d e8 00          	cmpl   $0x0,-0x18(%rbp)
    11a5:	7f 07                	jg     11ae <gcd_simple+0x25>
    11a7:	b8 00 00 00 00       	mov    $0x0,%eax
    11ac:	eb 53                	jmp    1201 <gcd_simple+0x78>
    11ae:	c7 45 f8 01 00 00 00 	movl   $0x1,-0x8(%rbp)
    11b5:	c7 45 fc 01 00 00 00 	movl   $0x1,-0x4(%rbp)
    11bc:	eb 24                	jmp    11e2 <gcd_simple+0x59>
    11be:	8b 45 ec             	mov    -0x14(%rbp),%eax
    11c1:	99                   	cltd   
    11c2:	f7 7d fc             	idivl  -0x4(%rbp)
    11c5:	89 d0                	mov    %edx,%eax
    11c7:	85 c0                	test   %eax,%eax
    11c9:	75 13                	jne    11de <gcd_simple+0x55>
    11cb:	8b 45 e8             	mov    -0x18(%rbp),%eax
    11ce:	99                   	cltd   
    11cf:	f7 7d fc             	idivl  -0x4(%rbp)
    11d2:	89 d0                	mov    %edx,%eax
    11d4:	85 c0                	test   %eax,%eax
    11d6:	75 06                	jne    11de <gcd_simple+0x55>
    11d8:	8b 45 fc             	mov    -0x4(%rbp),%eax
    11db:	89 45 f8             	mov    %eax,-0x8(%rbp)
    11de:	83 45 fc 01          	addl   $0x1,-0x4(%rbp)
    11e2:	8b 45 fc             	mov    -0x4(%rbp),%eax
    11e5:	3b 45 ec             	cmp    -0x14(%rbp),%eax
    11e8:	7f 08                	jg     11f2 <gcd_simple+0x69>
    11ea:	8b 45 fc             	mov    -0x4(%rbp),%eax
    11ed:	3b 45 e8             	cmp    -0x18(%rbp),%eax
    11f0:	7e cc                	jle    11be <gcd_simple+0x35>
    11f2:	48 8d 3d 0f 0e 00 00 	lea    0xe0f(%rip),%rdi        # 2008 <_IO_stdin_used+0x8>
    11f9:	e8 72 fe ff ff       	callq  1070 <puts@plt>
    11fe:	8b 45 f8             	mov    -0x8(%rbp),%eax
    1201:	c9                   	leaveq 
    1202:	c3                   	retq   

0000000000001203 <gcd_euklidean>:
    1203:	f3 0f 1e fa          	endbr64 
    1207:	55                   	push   %rbp
    1208:	48 89 e5             	mov    %rsp,%rbp
    120b:	48 83 ec 20          	sub    $0x20,%rsp
    120f:	89 7d ec             	mov    %edi,-0x14(%rbp)
    1212:	89 75 e8             	mov    %esi,-0x18(%rbp)
    1215:	8b 45 ec             	mov    -0x14(%rbp),%eax
    1218:	89 45 f4             	mov    %eax,-0xc(%rbp)
    121b:	8b 45 e8             	mov    -0x18(%rbp),%eax
    121e:	89 45 f8             	mov    %eax,-0x8(%rbp)
    1221:	eb 16                	jmp    1239 <gcd_euklidean+0x36>
    1223:	8b 45 f8             	mov    -0x8(%rbp),%eax
    1226:	89 45 fc             	mov    %eax,-0x4(%rbp)
    1229:	8b 45 f4             	mov    -0xc(%rbp),%eax
    122c:	99                   	cltd   
    122d:	f7 7d f8             	idivl  -0x8(%rbp)
    1230:	89 55 f8             	mov    %edx,-0x8(%rbp)
    1233:	8b 45 fc             	mov    -0x4(%rbp),%eax
    1236:	89 45 f4             	mov    %eax,-0xc(%rbp)
    1239:	83 7d f8 00          	cmpl   $0x0,-0x8(%rbp)
    123d:	75 e4                	jne    1223 <gcd_euklidean+0x20>
    123f:	48 8d 3d d2 0d 00 00 	lea    0xdd2(%rip),%rdi        # 2018 <_IO_stdin_used+0x18>
    1246:	e8 25 fe ff ff       	callq  1070 <puts@plt>
    124b:	8b 45 f4             	mov    -0xc(%rbp),%eax
    124e:	c9                   	leaveq 
    124f:	c3                   	retq   

0000000000001250 <main>:
    1250:	f3 0f 1e fa          	endbr64 
    1254:	55                   	push   %rbp
    1255:	48 89 e5             	mov    %rsp,%rbp
    1258:	48 83 ec 20          	sub    $0x20,%rsp
    125c:	89 7d ec             	mov    %edi,-0x14(%rbp)
    125f:	48 89 75 e0          	mov    %rsi,-0x20(%rbp)
    1263:	83 7d ec 04          	cmpl   $0x4,-0x14(%rbp)
    1267:	74 0a                	je     1273 <main+0x23>
    1269:	b8 01 00 00 00       	mov    $0x1,%eax
    126e:	e9 05 01 00 00       	jmpq   1378 <main+0x128>
    1273:	48 8b 45 e0          	mov    -0x20(%rbp),%rax
    1277:	48 83 c0 08          	add    $0x8,%rax
    127b:	48 8b 00             	mov    (%rax),%rax
    127e:	ba 0a 00 00 00       	mov    $0xa,%edx
    1283:	be 00 00 00 00       	mov    $0x0,%esi
    1288:	48 89 c7             	mov    %rax,%rdi
    128b:	e8 00 fe ff ff       	callq  1090 <strtol@plt>
    1290:	48 85 c0             	test   %rax,%rax
    1293:	74 1f                	je     12b4 <main+0x64>
    1295:	48 8b 45 e0          	mov    -0x20(%rbp),%rax
    1299:	48 83 c0 08          	add    $0x8,%rax
    129d:	48 8b 00             	mov    (%rax),%rax
    12a0:	ba 0a 00 00 00       	mov    $0xa,%edx
    12a5:	be 00 00 00 00       	mov    $0x0,%esi
    12aa:	48 89 c7             	mov    %rax,%rdi
    12ad:	e8 de fd ff ff       	callq  1090 <strtol@plt>
    12b2:	eb 05                	jmp    12b9 <main+0x69>
    12b4:	b8 01 00 00 00       	mov    $0x1,%eax
    12b9:	89 45 f0             	mov    %eax,-0x10(%rbp)
    12bc:	48 8b 45 e0          	mov    -0x20(%rbp),%rax
    12c0:	48 83 c0 10          	add    $0x10,%rax
    12c4:	48 8b 00             	mov    (%rax),%rax
    12c7:	ba 0a 00 00 00       	mov    $0xa,%edx
    12cc:	be 00 00 00 00       	mov    $0x0,%esi
    12d1:	48 89 c7             	mov    %rax,%rdi
    12d4:	e8 b7 fd ff ff       	callq  1090 <strtol@plt>
    12d9:	48 85 c0             	test   %rax,%rax
    12dc:	74 1f                	je     12fd <main+0xad>
    12de:	48 8b 45 e0          	mov    -0x20(%rbp),%rax
    12e2:	48 83 c0 10          	add    $0x10,%rax
    12e6:	48 8b 00             	mov    (%rax),%rax
    12e9:	ba 0a 00 00 00       	mov    $0xa,%edx
    12ee:	be 00 00 00 00       	mov    $0x0,%esi
    12f3:	48 89 c7             	mov    %rax,%rdi
    12f6:	e8 95 fd ff ff       	callq  1090 <strtol@plt>
    12fb:	eb 05                	jmp    1302 <main+0xb2>
    12fd:	b8 01 00 00 00       	mov    $0x1,%eax
    1302:	89 45 f4             	mov    %eax,-0xc(%rbp)
    1305:	48 8b 45 e0          	mov    -0x20(%rbp),%rax
    1309:	48 83 c0 18          	add    $0x18,%rax
    130d:	48 8b 00             	mov    (%rax),%rax
    1310:	0f b6 00             	movzbl (%rax),%eax
    1313:	89 c2                	mov    %eax,%edx
    1315:	c0 fa 07             	sar    $0x7,%dl
    1318:	c0 ea 07             	shr    $0x7,%dl
    131b:	01 d0                	add    %edx,%eax
    131d:	83 e0 01             	and    $0x1,%eax
    1320:	29 d0                	sub    %edx,%eax
    1322:	0f be c0             	movsbl %al,%eax
    1325:	89 45 f8             	mov    %eax,-0x8(%rbp)
    1328:	83 7d f8 00          	cmpl   $0x0,-0x8(%rbp)
    132c:	74 11                	je     133f <main+0xef>
    132e:	8b 55 f4             	mov    -0xc(%rbp),%edx
    1331:	8b 45 f0             	mov    -0x10(%rbp),%eax
    1334:	89 d6                	mov    %edx,%esi
    1336:	89 c7                	mov    %eax,%edi
    1338:	e8 4c fe ff ff       	callq  1189 <gcd_simple>
    133d:	eb 0f                	jmp    134e <main+0xfe>
    133f:	8b 55 f4             	mov    -0xc(%rbp),%edx
    1342:	8b 45 f0             	mov    -0x10(%rbp),%eax
    1345:	89 d6                	mov    %edx,%esi
    1347:	89 c7                	mov    %eax,%edi
    1349:	e8 b5 fe ff ff       	callq  1203 <gcd_euklidean>
    134e:	89 45 fc             	mov    %eax,-0x4(%rbp)
    1351:	8b 75 f8             	mov    -0x8(%rbp),%esi
    1354:	8b 4d fc             	mov    -0x4(%rbp),%ecx
    1357:	8b 55 f4             	mov    -0xc(%rbp),%edx
    135a:	8b 45 f0             	mov    -0x10(%rbp),%eax
    135d:	41 89 f0             	mov    %esi,%r8d
    1360:	89 c6                	mov    %eax,%esi
    1362:	48 8d 3d c7 0c 00 00 	lea    0xcc7(%rip),%rdi        # 2030 <_IO_stdin_used+0x30>
    1369:	b8 00 00 00 00       	mov    $0x0,%eax
    136e:	e8 0d fd ff ff       	callq  1080 <printf@plt>
    1373:	b8 00 00 00 00       	mov    $0x0,%eax
    1378:	c9                   	leaveq 
    1379:	c3                   	retq   
    137a:	66 0f 1f 44 00 00    	nopw   0x0(%rax,%rax,1)

0000000000001380 <__libc_csu_init>:
    1380:	f3 0f 1e fa          	endbr64 
    1384:	41 57                	push   %r15
    1386:	4c 8d 3d 1b 2a 00 00 	lea    0x2a1b(%rip),%r15        # 3da8 <__frame_dummy_init_array_entry>
    138d:	41 56                	push   %r14
    138f:	49 89 d6             	mov    %rdx,%r14
    1392:	41 55                	push   %r13
    1394:	49 89 f5             	mov    %rsi,%r13
    1397:	41 54                	push   %r12
    1399:	41 89 fc             	mov    %edi,%r12d
    139c:	55                   	push   %rbp
    139d:	48 8d 2d 0c 2a 00 00 	lea    0x2a0c(%rip),%rbp        # 3db0 <__do_global_dtors_aux_fini_array_entry>
    13a4:	53                   	push   %rbx
    13a5:	4c 29 fd             	sub    %r15,%rbp
    13a8:	48 83 ec 08          	sub    $0x8,%rsp
    13ac:	e8 4f fc ff ff       	callq  1000 <_init>
    13b1:	48 c1 fd 03          	sar    $0x3,%rbp
    13b5:	74 1f                	je     13d6 <__libc_csu_init+0x56>
    13b7:	31 db                	xor    %ebx,%ebx
    13b9:	0f 1f 80 00 00 00 00 	nopl   0x0(%rax)
    13c0:	4c 89 f2             	mov    %r14,%rdx
    13c3:	4c 89 ee             	mov    %r13,%rsi
    13c6:	44 89 e7             	mov    %r12d,%edi
    13c9:	41 ff 14 df          	callq  *(%r15,%rbx,8)
    13cd:	48 83 c3 01          	add    $0x1,%rbx
    13d1:	48 39 dd             	cmp    %rbx,%rbp
    13d4:	75 ea                	jne    13c0 <__libc_csu_init+0x40>
    13d6:	48 83 c4 08          	add    $0x8,%rsp
    13da:	5b                   	pop    %rbx
    13db:	5d                   	pop    %rbp
    13dc:	41 5c                	pop    %r12
    13de:	41 5d                	pop    %r13
    13e0:	41 5e                	pop    %r14
    13e2:	41 5f                	pop    %r15
    13e4:	c3                   	retq   
    13e5:	66 66 2e 0f 1f 84 00 	data16 nopw %cs:0x0(%rax,%rax,1)
    13ec:	00 00 00 00 

00000000000013f0 <__libc_csu_fini>:
    13f0:	f3 0f 1e fa          	endbr64 
    13f4:	c3                   	retq   

Disassembly of section .fini:

00000000000013f8 <_fini>:
    13f8:	f3 0f 1e fa          	endbr64 
    13fc:	48 83 ec 08          	sub    $0x8,%rsp
    1400:	48 83 c4 08          	add    $0x8,%rsp
    1404:	c3                   	retq   
